; Function Attrs: mustprogress uwtable
define internal void @_ZN9grpc_core20arena_promise_detail17AllocatedCallableISt10unique_ptrI19grpc_metadata_batchNS_5Arena13PooledDeleterEEZZZNS_23PromiseTracingFilterForEPK19grpc_channel_filterEN13DerivedFilterC1ES9_ENKUlP20grpc_channel_elementNS_8CallArgsESt8functionIFNS_12ArenaPromiseIS6_EESD_EEE_clESC_SD_SI_EUlvE_E7DestroyEPNS0_7ArgTypeE(ptr nocapture noundef readonly %arg) #16 align 2 personality ptr @__gxx_personality_v0 {
entry:
  %0 = load ptr, ptr %arg, align 8
  %1 = getelementptr inbounds i8, ptr %0, i64 16
  %2 = load ptr, ptr %1, align 16
  %destroy.i.i.i = getelementptr inbounds i8, ptr %2, i64 8
  %3 = load ptr, ptr %destroy.i.i.i, align 8
  %arg.i.i.i = getelementptr inbounds i8, ptr %0, i64 32
  invoke void %3(ptr noundef nonnull %arg.i.i.i)
          to label %_ZN9grpc_core8DestructIZZZNS_23PromiseTracingFilterForEPK19grpc_channel_filterEN13DerivedFilterC1ES3_ENKUlP20grpc_channel_elementNS_8CallArgsESt8functionIFNS_12ArenaPromiseISt10unique_ptrI19grpc_metadata_batchNS_5Arena13PooledDeleterEEEES7_EEE_clES6_S7_SH_EUlvE_EEvPT_.exit unwind label %terminate.lpad.i.i.i

terminate.lpad.i.i.i:                             ; preds = %entry
  %4 = landingpad { ptr, i32 }
          catch ptr null
  %5 = extractvalue { ptr, i32 } %4, 0
  tail call void @__clang_call_terminate(ptr %5) #33
  unreachable

_ZN9grpc_core8DestructIZZZNS_23PromiseTracingFilterForEPK19grpc_channel_filterEN13DerivedFilterC1ES3_ENKUlP20grpc_channel_elementNS_8CallArgsESt8functionIFNS_12ArenaPromiseISt10unique_ptrI19grpc_metadata_batchNS_5Arena13PooledDeleterEEEES7_EEE_clES6_S7_SH_EUlvE_EEvPT_.exit: ; preds = %entry
  ret void
}